; Function Attrs: mustprogress uwtable
define noundef i32 @_ZN5ImGui35TypingSelectFindNextSingleCharMatchEP24ImGuiTypingSelectRequestiPFPKcPviES4_i(ptr noundef readonly captures(none) %0, i32 noundef %1, ptr noundef readonly captures(none) %2, ptr noundef %3, i32 noundef %4) local_unnamed_addr #6 {
  %.not40 = icmp sgt i32 %1, 0
  br i1 %.not40, label %.lr.ph, label %.thread

.lr.ph:                                           ; preds = %5
  %6 = getelementptr inbounds nuw i8, ptr %0, i64 8
  %7 = getelementptr inbounds nuw i8, ptr %0, i64 18
  br label %8

8:                                                ; preds = %.lr.ph, %34
  %.02643 = phi i32 [ 0, %.lr.ph ], [ %35, %34 ]
  %.02742 = phi i1 [ false, %.lr.ph ], [ %.128, %34 ]
  %.03041 = phi i32 [ -1, %.lr.ph ], [ %.232, %34 ]
  %9 = tail call noundef ptr %2(ptr noundef %3, i32 noundef %.02643)
  %10 = load ptr, ptr %6, align 8, !tbaa !579
  %11 = load i8, ptr %7, align 2, !tbaa !574
  %12 = sext i8 %11 to i64
  %13 = getelementptr inbounds i8, ptr %10, i64 %12
  %14 = icmp sgt i8 %11, 0
  br i1 %14, label %.lr.ph.i, label %_ZL14ImStrimatchlenPKcS0_S0_.exit

.lr.ph.i:                                         ; preds = %8, %24
  %.010.i = phi i32 [ %27, %24 ], [ 0, %8 ]
  %.059.i = phi ptr [ %25, %24 ], [ %9, %8 ]
  %.068.i = phi ptr [ %26, %24 ], [ %10, %8 ]
  %15 = load i8, ptr %.068.i, align 1, !tbaa !341
  %16 = add i8 %15, -97
  %or.cond.i.i = icmp ult i8 %16, 26
  %17 = and i8 %15, 95
  %18 = select i1 %or.cond.i.i, i8 %17, i8 %15
  %19 = load i8, ptr %.059.i, align 1, !tbaa !341
  %20 = add i8 %19, -97
  %or.cond.i7.i = icmp ult i8 %20, 26
  %21 = and i8 %19, 95
  %22 = select i1 %or.cond.i7.i, i8 %21, i8 %19
  %23 = icmp eq i8 %18, %22
  br i1 %23, label %24, label %_ZL14ImStrimatchlenPKcS0_S0_.exit

24:                                               ; preds = %.lr.ph.i
  %25 = getelementptr inbounds nuw i8, ptr %.059.i, i64 1
  %26 = getelementptr inbounds nuw i8, ptr %.068.i, i64 1
  %27 = add nuw nsw i32 %.010.i, 1
  %exitcond.not.i = icmp eq ptr %26, %13
  br i1 %exitcond.not.i, label %_ZL14ImStrimatchlenPKcS0_S0_.exit.thread, label %.lr.ph.i, !llvm.loop !583

_ZL14ImStrimatchlenPKcS0_S0_.exit:                ; preds = %.lr.ph.i, %8
  %.0.lcssa.i = phi i32 [ 0, %8 ], [ %.010.i, %.lr.ph.i ]
  %28 = sext i8 %11 to i32
  %29 = icmp slt i32 %.0.lcssa.i, %28
  br i1 %29, label %34, label %_ZL14ImStrimatchlenPKcS0_S0_.exit.thread

_ZL14ImStrimatchlenPKcS0_S0_.exit.thread:         ; preds = %24, %_ZL14ImStrimatchlenPKcS0_S0_.exit
  %30 = and i32 %.03041, %4
  %or.cond = icmp eq i32 %30, -1
  %or.cond39 = select i1 %.02742, i1 true, i1 %or.cond
  br i1 %or.cond39, label %.thread, label %31

31:                                               ; preds = %_ZL14ImStrimatchlenPKcS0_S0_.exit.thread
  %32 = icmp eq i32 %.03041, -1
  %spec.select = select i1 %32, i32 %.02643, i32 %.03041
  %33 = icmp eq i32 %4, %.02643
  br label %34

34:                                               ; preds = %31, %_ZL14ImStrimatchlenPKcS0_S0_.exit
  %.232 = phi i32 [ %spec.select, %31 ], [ %.03041, %_ZL14ImStrimatchlenPKcS0_S0_.exit ]
  %.128 = phi i1 [ %33, %31 ], [ %.02742, %_ZL14ImStrimatchlenPKcS0_S0_.exit ]
  %35 = add nuw nsw i32 %.02643, 1
  %exitcond.not = icmp eq i32 %35, %1
  br i1 %exitcond.not, label %.thread, label %8, !llvm.loop !584

.thread:                                          ; preds = %34, %_ZL14ImStrimatchlenPKcS0_S0_.exit.thread, %5
  %spec.select34 = phi i32 [ -1, %5 ], [ %.02643, %_ZL14ImStrimatchlenPKcS0_S0_.exit.thread ], [ %.232, %34 ]
  ret i32 %spec.select34
}